; Function Attrs: cold nounwind optsize uwtable
define internal noundef i32 @decode_init(ptr noundef %0) #0 {
  %2 = getelementptr inbounds nuw i8, ptr %0, i64 32
  %3 = load ptr, ptr %2, align 8, !tbaa !4
  store ptr %0, ptr %3, align 8, !tbaa !27
  %4 = getelementptr inbounds nuw i8, ptr %3, i64 24
  store ptr null, ptr %4, align 8, !tbaa !31
  %5 = getelementptr inbounds nuw i8, ptr %3, i64 8
  tail call void @ff_bswapdsp_init(ptr noundef nonnull %5) #7
  ret i32 0
}